target datalayout = "e-m:e-p270:32:32-p271:32:32-p272:64:64-i64:64-i128:128-f80:128-n8:16:32:64-S128"
target triple = "x86_64-pc-linux-gnu"

%"class.zmq::tipc_address_t" = type { i8, %struct.sockaddr_tipc }
%struct.sockaddr_tipc = type { i16, i8, i8, %union.anon }
%union.anon = type { %struct.tipc_service_range }
%struct.tipc_service_range = type { i32, i32, i32 }
%struct.sockaddr = type { i16, [14 x i8] }

@stderr = external global ptr, align 8
@.str = private unnamed_addr constant [30 x i8] c"Assertion failed: %s (%s:%d)\0A\00", align 1
@.str.1 = private unnamed_addr constant [19 x i8] c"sa_ && sa_len_ > 0\00", align 1
@.str.2 = private unnamed_addr constant [112 x i8] c"generated/home/dtcxzyw/WorkSpace/Projects/compilers/llvm-opt-benchmark/bench/libzmq/libzmq/src/tipc_address.cpp\00", align 1

; Function Attrs: mustprogress uwtable
define void @_ZN3zmq14tipc_address_tC2EPK8sockaddrj(ptr noundef nonnull align 4 dereferenceable(20) %0, ptr noundef %1, i32 noundef %2) unnamed_addr #2 align 2 {
  %4 = alloca ptr, align 8
  %5 = alloca ptr, align 8
  %6 = alloca i32, align 4
  store ptr %0, ptr %4, align 8, !tbaa !3
  store ptr %1, ptr %5, align 8, !tbaa !13
  store i32 %2, ptr %6, align 4, !tbaa !15
  %7 = load ptr, ptr %4, align 8
  br label %8

8:                                                ; preds = %3
  %9 = load ptr, ptr %5, align 8, !tbaa !13
  %10 = icmp ne ptr %9, null
  br i1 %10, label %11, label %14

11:                                               ; preds = %8
  %12 = load i32, ptr %6, align 4, !tbaa !15
  %13 = icmp ugt i32 %12, 0
  br label %14

14:                                               ; preds = %11, %8
  %15 = phi i1 [ false, %8 ], [ %13, %11 ]
  %16 = xor i1 %15, true
  %17 = zext i1 %16 to i64
  %18 = call i64 @llvm.expect.i64(i64 %17, i64 0)
  %19 = icmp ne i64 %18, 0
  br i1 %19, label %20, label %25

20:                                               ; preds = %14
  %21 = load ptr, ptr @stderr, align 8, !tbaa !17
  %22 = call i32 (ptr, ptr, ...) @fprintf(ptr noundef %21, ptr noundef @.str, ptr noundef @.str.1, ptr noundef @.str.2, i32 noundef 22) #15
  %23 = load ptr, ptr @stderr, align 8, !tbaa !17
  %24 = call i32 @fflush(ptr noundef %23)
  call void @_ZN3zmq9zmq_abortEPKc(ptr noundef @.str.1)
  br label %25

25:                                               ; preds = %20, %14
  br label %26

26:                                               ; preds = %25
  %27 = getelementptr inbounds nuw %"class.zmq::tipc_address_t", ptr %7, i32 0, i32 1
  call void @llvm.memset.p0.i64(ptr align 4 %27, i8 0, i64 16, i1 false)
  %28 = load ptr, ptr %5, align 8, !tbaa !13
  %29 = getelementptr inbounds nuw %struct.sockaddr, ptr %28, i32 0, i32 0
  %30 = load i16, ptr %29, align 2, !tbaa !19
  %31 = zext i16 %30 to i32
  %32 = icmp eq i32 %31, 30
  br i1 %32, label %33, label %38

33:                                               ; preds = %26
  %34 = getelementptr inbounds nuw %"class.zmq::tipc_address_t", ptr %7, i32 0, i32 1
  %35 = load ptr, ptr %5, align 8, !tbaa !13
  %36 = load i32, ptr %6, align 4, !tbaa !15
  %37 = zext i32 %36 to i64
  call void @llvm.memcpy.p0.p0.i64(ptr align 4 %34, ptr align 2 %35, i64 %37, i1 false)
  br label %38

38:                                               ; preds = %33, %26
  %39 = getelementptr inbounds nuw %"class.zmq::tipc_address_t", ptr %7, i32 0, i32 0
  store i8 0, ptr %39, align 4, !tbaa !8
  ret void
}