; Function Attrs: mustprogress uwtable
define void @_ZN3zmq14tipc_address_tC2EPK8sockaddrj(ptr noundef nonnull writeonly align 4 captures(none) dereferenceable(20) initializes((0, 1), (4, 20)) %0, ptr noundef readonly %1, i32 noundef %2) unnamed_addr #2 align 2 {
  %4 = icmp eq ptr %1, null
  %5 = icmp eq i32 %2, 0
  %.not6 = or i1 %4, %5
  br i1 %.not6, label %6, label %11, !prof !10

6:                                                ; preds = %3
  %7 = load ptr, ptr @stderr, align 8, !tbaa !11
  %8 = tail call i32 (ptr, ptr, ...) @fprintf(ptr noundef %7, ptr noundef nonnull @.str, ptr noundef nonnull @.str.1, ptr noundef nonnull @.str.2, i32 noundef 22) #16
  %9 = load ptr, ptr @stderr, align 8, !tbaa !11
  %10 = tail call i32 @fflush(ptr noundef %9)
  tail call void @_ZN3zmq9zmq_abortEPKc(ptr noundef nonnull @.str.1)
  br label %11

11:                                               ; preds = %3, %6
  %12 = getelementptr inbounds nuw i8, ptr %0, i64 4
  tail call void @llvm.memset.p0.i64(ptr noundef nonnull align 4 dereferenceable(16) %12, i8 0, i64 16, i1 false)
  %13 = load i16, ptr %1, align 2, !tbaa !14
  %14 = icmp eq i16 %13, 30
  br i1 %14, label %15, label %17

15:                                               ; preds = %11
  %16 = zext i32 %2 to i64
  tail call void @llvm.memcpy.p0.p0.i64(ptr nonnull align 4 %12, ptr nonnull align 2 %1, i64 %16, i1 false)
  br label %17

17:                                               ; preds = %15, %11
  store i8 0, ptr %0, align 4, !tbaa !3
  ret void
}